; ModuleID = 'source-C-CXX/48/378.cpp'
source_filename = "source-C-CXX/48/378.cpp"
target datalayout = "e-m:e-p270:32:32-p271:32:32-p272:64:64-i64:64-f80:128-n8:16:32:64-S128"
target triple = "x86_64-pc-linux-gnu"

%"class.std::ios_base::Init" = type { i8 }
%"class.std::basic_ostream" = type { i32 (...)**, %"class.std::basic_ios" }
%"class.std::basic_ios" = type { %"class.std::ios_base", %"class.std::basic_ostream"*, i8, i8, %"class.std::basic_streambuf"*, %"class.std::ctype"*, %"class.std::num_put"*, %"class.std::num_get"* }
%"class.std::ios_base" = type { i32 (...)**, i64, i64, i32, i32, i32, %"struct.std::ios_base::_Callback_list"*, %"struct.std::ios_base::_Words", [8 x %"struct.std::ios_base::_Words"], i32, %"struct.std::ios_base::_Words"*, %"class.std::locale" }
%"struct.std::ios_base::_Callback_list" = type { %"struct.std::ios_base::_Callback_list"*, void (i32, %"class.std::ios_base"*, i32)*, i32, i32 }
%"struct.std::ios_base::_Words" = type { i8*, i64 }
%"class.std::locale" = type { %"class.std::locale::_Impl"* }
%"class.std::locale::_Impl" = type { i32, %"class.std::locale::facet"**, i64, %"class.std::locale::facet"**, i8** }
%"class.std::locale::facet" = type <{ i32 (...)**, i32, [4 x i8] }>
%"class.std::basic_streambuf" = type { i32 (...)**, i8*, i8*, i8*, i8*, i8*, i8*, %"class.std::locale" }
%"class.std::ctype" = type <{ %"class.std::locale::facet.base", [4 x i8], %struct.__locale_struct*, i8, [7 x i8], i32*, i32*, i16*, i8, [256 x i8], [256 x i8], i8, [6 x i8] }>
%"class.std::locale::facet.base" = type <{ i32 (...)**, i32 }>
%struct.__locale_struct = type { [13 x %struct.__locale_data*], i16*, i32*, i32*, [13 x i8*] }
%struct.__locale_data = type opaque
%"class.std::num_put" = type { %"class.std::locale::facet.base", [4 x i8] }
%"class.std::num_get" = type { %"class.std::locale::facet.base", [4 x i8] }
%"class.std::basic_istream" = type { i32 (...)**, i64, %"class.std::basic_ios" }

@_ZStL8__ioinit = internal global %"class.std::ios_base::Init" zeroinitializer, align 1
@__dso_handle = external hidden global i8
@_ZSt4cout = external global %"class.std::basic_ostream", align 8
@_ZSt3cin = external global %"class.std::basic_istream", align 8
@llvm.global_ctors = appending global [1 x { i32, void ()*, i8* }] [{ i32, void ()*, i8* } { i32 65535, void ()* @_GLOBAL__sub_I_378.cpp, i8* null }]

declare void @_ZNSt8ios_base4InitC1Ev(%"class.std::ios_base::Init"* nonnull align 1 dereferenceable(1)) unnamed_addr #0

; Function Attrs: nounwind
declare void @_ZNSt8ios_base4InitD1Ev(%"class.std::ios_base::Init"* nonnull align 1 dereferenceable(1)) unnamed_addr #1

; Function Attrs: nofree nounwind
declare i32 @__cxa_atexit(void (i8*)*, i8*, i8*) local_unnamed_addr #2

; Function Attrs: mustprogress sspstrong uwtable
define dso_local i32 @_Z1fPci(i8* nocapture readonly %0, i32 %1) local_unnamed_addr #3 {
  %3 = alloca i8, align 1
  %4 = icmp slt i32 %1, 2
  br i1 %4, label %113, label %5

5:                                                ; preds = %2
  %6 = add nuw i32 %1, 1
  %7 = zext i32 %6 to i64
  %8 = zext i32 %1 to i64
  br label %9

9:                                                ; preds = %5, %108
  %10 = phi i64 [ 0, %5 ], [ %111, %108 ]
  %11 = phi i64 [ 2, %5 ], [ %109, %108 ]
  %12 = add i64 %10, 2
  %13 = and i64 %10, 1
  %14 = icmp eq i64 %10, -1
  %15 = and i64 %12, -2
  %16 = icmp eq i64 %13, 0
  br label %104

17:                                               ; preds = %74, %104
  %18 = phi i32 [ undef, %104 ], [ %99, %74 ]
  %19 = phi i64 [ 0, %104 ], [ %100, %74 ]
  %20 = phi i32 [ 1, %104 ], [ %99, %74 ]
  %21 = phi i32 [ 0, %104 ], [ %101, %74 ]
  br i1 %16, label %33, label %22

22:                                               ; preds = %17
  %23 = add nuw nsw i64 %19, %105
  %24 = getelementptr inbounds i8, i8* %0, i64 %23
  %25 = load i8, i8* %24, align 1, !tbaa !5
  %26 = xor i32 %21, -1
  %27 = add nsw i32 %107, %26
  %28 = sext i32 %27 to i64
  %29 = getelementptr inbounds i8, i8* %0, i64 %28
  %30 = load i8, i8* %29, align 1, !tbaa !5
  %31 = icmp eq i8 %25, %30
  %32 = select i1 %31, i32 %20, i32 0
  br label %33

33:                                               ; preds = %17, %22
  %34 = phi i32 [ %18, %17 ], [ %32, %22 ]
  %35 = icmp eq i32 %34, 0
  br i1 %35, label %71, label %63

36:                                               ; preds = %63
  %37 = load i8*, i8** bitcast (%"class.std::basic_ostream"* @_ZSt4cout to i8**), align 8, !tbaa !8
  %38 = getelementptr i8, i8* %37, i64 -24
  %39 = bitcast i8* %38 to i64*
  %40 = load i64, i64* %39, align 8
  %41 = add nsw i64 %40, 240
  %42 = getelementptr inbounds i8, i8* bitcast (%"class.std::basic_ostream"* @_ZSt4cout to i8*), i64 %41
  %43 = bitcast i8* %42 to %"class.std::ctype"**
  %44 = load %"class.std::ctype"*, %"class.std::ctype"** %43, align 8, !tbaa !10
  %45 = icmp eq %"class.std::ctype"* %44, null
  br i1 %45, label %112, label %46

46:                                               ; preds = %36
  %47 = getelementptr inbounds %"class.std::ctype", %"class.std::ctype"* %44, i64 0, i32 8
  %48 = load i8, i8* %47, align 8, !tbaa !14
  %49 = icmp eq i8 %48, 0
  br i1 %49, label %53, label %50

50:                                               ; preds = %46
  %51 = getelementptr inbounds %"class.std::ctype", %"class.std::ctype"* %44, i64 0, i32 9, i64 10
  %52 = load i8, i8* %51, align 1, !tbaa !5
  br label %59

53:                                               ; preds = %46
  call void @_ZNKSt5ctypeIcE13_M_widen_initEv(%"class.std::ctype"* nonnull align 8 dereferenceable(570) %44)
  %54 = bitcast %"class.std::ctype"* %44 to i8 (%"class.std::ctype"*, i8)***
  %55 = load i8 (%"class.std::ctype"*, i8)**, i8 (%"class.std::ctype"*, i8)*** %54, align 8, !tbaa !8
  %56 = getelementptr inbounds i8 (%"class.std::ctype"*, i8)*, i8 (%"class.std::ctype"*, i8)** %55, i64 6
  %57 = load i8 (%"class.std::ctype"*, i8)*, i8 (%"class.std::ctype"*, i8)** %56, align 8
  %58 = call signext i8 %57(%"class.std::ctype"* nonnull align 8 dereferenceable(570) %44, i8 signext 10)
  br label %59

59:                                               ; preds = %53, %50
  %60 = phi i8 [ %52, %50 ], [ %58, %53 ]
  %61 = call nonnull align 8 dereferenceable(8) %"class.std::basic_ostream"* @_ZNSo3putEc(%"class.std::basic_ostream"* nonnull align 8 dereferenceable(8) @_ZSt4cout, i8 signext %60)
  %62 = call nonnull align 8 dereferenceable(8) %"class.std::basic_ostream"* @_ZNSo5flushEv(%"class.std::basic_ostream"* nonnull align 8 dereferenceable(8) %61)
  br label %71

63:                                               ; preds = %33, %63
  %64 = phi i64 [ %69, %63 ], [ 0, %33 ]
  %65 = add nuw nsw i64 %64, %105
  %66 = getelementptr inbounds i8, i8* %0, i64 %65
  %67 = load i8, i8* %66, align 1, !tbaa !5
  call void @llvm.lifetime.start.p0i8(i64 1, i8* nonnull %3)
  store i8 %67, i8* %3, align 1, !tbaa !5
  %68 = call nonnull align 8 dereferenceable(8) %"class.std::basic_ostream"* @_ZSt16__ostream_insertIcSt11char_traitsIcEERSt13basic_ostreamIT_T0_ES6_PKS3_l(%"class.std::basic_ostream"* nonnull align 8 dereferenceable(8) @_ZSt4cout, i8* nonnull %3, i64 1)
  call void @llvm.lifetime.end.p0i8(i64 1, i8* nonnull %3)
  %69 = add nuw nsw i64 %64, 1
  %70 = icmp eq i64 %69, %11
  br i1 %70, label %36, label %63, !llvm.loop !16

71:                                               ; preds = %59, %33
  %72 = add nuw nsw i64 %105, 1
  %73 = icmp eq i64 %72, %8
  br i1 %73, label %108, label %104, !llvm.loop !18

74:                                               ; preds = %104, %74
  %75 = phi i64 [ %100, %74 ], [ 0, %104 ]
  %76 = phi i32 [ %99, %74 ], [ 1, %104 ]
  %77 = phi i32 [ %101, %74 ], [ 0, %104 ]
  %78 = phi i64 [ %102, %74 ], [ %15, %104 ]
  %79 = add nuw nsw i64 %75, %105
  %80 = getelementptr inbounds i8, i8* %0, i64 %79
  %81 = load i8, i8* %80, align 1, !tbaa !5
  %82 = xor i32 %77, -1
  %83 = add nsw i32 %107, %82
  %84 = sext i32 %83 to i64
  %85 = getelementptr inbounds i8, i8* %0, i64 %84
  %86 = load i8, i8* %85, align 1, !tbaa !5
  %87 = icmp eq i8 %81, %86
  %88 = or i64 %75, 1
  %89 = add nuw nsw i64 %88, %105
  %90 = getelementptr inbounds i8, i8* %0, i64 %89
  %91 = load i8, i8* %90, align 1, !tbaa !5
  %92 = sub nuw nsw i32 -2, %77
  %93 = add nsw i32 %92, %107
  %94 = sext i32 %93 to i64
  %95 = getelementptr inbounds i8, i8* %0, i64 %94
  %96 = load i8, i8* %95, align 1, !tbaa !5
  %97 = icmp eq i8 %91, %96
  %98 = select i1 %97, i1 %87, i1 false
  %99 = select i1 %98, i32 %76, i32 0
  %100 = add nuw nsw i64 %75, 2
  %101 = add nuw nsw i32 %77, 2
  %102 = add i64 %78, -2
  %103 = icmp eq i64 %102, 0
  br i1 %103, label %17, label %74, !llvm.loop !19

104:                                              ; preds = %9, %71
  %105 = phi i64 [ 1, %9 ], [ %72, %71 ]
  %106 = add nuw nsw i64 %105, %11
  %107 = trunc i64 %106 to i32
  br i1 %14, label %17, label %74

108:                                              ; preds = %71
  %109 = add nuw nsw i64 %11, 1
  %110 = icmp eq i64 %109, %7
  %111 = add i64 %10, 1
  br i1 %110, label %113, label %9, !llvm.loop !20

112:                                              ; preds = %36
  call void @_ZSt16__throw_bad_castv() #8
  unreachable

113:                                              ; preds = %108, %2
  ret i32 0
}

; Function Attrs: argmemonly mustprogress nofree nosync nounwind willreturn
declare void @llvm.lifetime.start.p0i8(i64 immarg, i8* nocapture) #4

; Function Attrs: argmemonly mustprogress nofree nosync nounwind willreturn
declare void @llvm.lifetime.end.p0i8(i64 immarg, i8* nocapture) #4

; Function Attrs: mustprogress norecurse sspstrong uwtable
define dso_local i32 @main() local_unnamed_addr #5 {
  %1 = alloca [501 x i8], align 16
  %2 = getelementptr inbounds [501 x i8], [501 x i8]* %1, i64 0, i64 0
  call void @llvm.lifetime.start.p0i8(i64 501, i8* nonnull %2) #9
  br label %3

3:                                                ; preds = %0, %3
  %4 = phi i64 [ 1, %0 ], [ %8, %3 ]
  %5 = tail call i32 @_ZNSi3getEv(%"class.std::basic_istream"* nonnull align 8 dereferenceable(16) @_ZSt3cin)
  %6 = trunc i32 %5 to i8
  %7 = getelementptr inbounds [501 x i8], [501 x i8]* %1, i64 0, i64 %4
  store i8 %6, i8* %7, align 1, !tbaa !5
  %8 = add nuw i64 %4, 1
  %9 = icmp eq i8 %6, 10
  br i1 %9, label %10, label %3, !llvm.loop !21

10:                                               ; preds = %3
  %11 = trunc i64 %8 to i32
  %12 = call i32 @_Z1fPci(i8* nonnull %2, i32 %11)
  call void @llvm.lifetime.end.p0i8(i64 501, i8* nonnull %2) #9
  ret i32 0
}

declare i32 @_ZNSi3getEv(%"class.std::basic_istream"* nonnull align 8 dereferenceable(16)) local_unnamed_addr #0

declare nonnull align 8 dereferenceable(8) %"class.std::basic_ostream"* @_ZSt16__ostream_insertIcSt11char_traitsIcEERSt13basic_ostreamIT_T0_ES6_PKS3_l(%"class.std::basic_ostream"* nonnull align 8 dereferenceable(8), i8*, i64) local_unnamed_addr #0

declare nonnull align 8 dereferenceable(8) %"class.std::basic_ostream"* @_ZNSo3putEc(%"class.std::basic_ostream"* nonnull align 8 dereferenceable(8), i8 signext) local_unnamed_addr #0

declare nonnull align 8 dereferenceable(8) %"class.std::basic_ostream"* @_ZNSo5flushEv(%"class.std::basic_ostream"* nonnull align 8 dereferenceable(8)) local_unnamed_addr #0

; Function Attrs: noreturn
declare void @_ZSt16__throw_bad_castv() local_unnamed_addr #6

declare void @_ZNKSt5ctypeIcE13_M_widen_initEv(%"class.std::ctype"* nonnull align 8 dereferenceable(570)) local_unnamed_addr #0

; Function Attrs: sspstrong uwtable
define internal void @_GLOBAL__sub_I_378.cpp() #7 section ".text.startup" {
  tail call void @_ZNSt8ios_base4InitC1Ev(%"class.std::ios_base::Init"* nonnull align 1 dereferenceable(1) @_ZStL8__ioinit)
  %1 = tail call i32 @__cxa_atexit(void (i8*)* bitcast (void (%"class.std::ios_base::Init"*)* @_ZNSt8ios_base4InitD1Ev to void (i8*)*), i8* getelementptr inbounds (%"class.std::ios_base::Init", %"class.std::ios_base::Init"* @_ZStL8__ioinit, i64 0, i32 0), i8* nonnull @__dso_handle) #9
  ret void
}


!llvm.module.flags = !{!0, !1, !2, !3}
!llvm.ident = !{!4}

!0 = !{i32 1, !"wchar_size", i32 4}
!1 = !{i32 7, !"PIC Level", i32 2}
!2 = !{i32 7, !"PIE Level", i32 2}
!3 = !{i32 7, !"uwtable", i32 1}
!4 = !{!"clang version 13.0.0"}
!5 = !{!6, !6, i64 0}
!6 = !{!"omnipotent char", !7, i64 0}
!7 = !{!"Simple C++ TBAA"}
!8 = !{!9, !9, i64 0}
!9 = !{!"vtable pointer", !7, i64 0}
!10 = !{!11, !12, i64 240}
!11 = !{!"_ZTSSt9basic_iosIcSt11char_traitsIcEE", !12, i64 216, !6, i64 224, !13, i64 225, !12, i64 232, !12, i64 240, !12, i64 248, !12, i64 256}
!12 = !{!"any pointer", !6, i64 0}
!13 = !{!"bool", !6, i64 0}
!14 = !{!15, !6, i64 56}
!15 = !{!"_ZTSSt5ctypeIcE", !12, i64 16, !13, i64 24, !12, i64 32, !12, i64 40, !12, i64 48, !6, i64 56, !6, i64 57, !6, i64 313, !6, i64 569}
!16 = distinct !{!16, !17}
!17 = !{!"llvm.loop.mustprogress"}
!18 = distinct !{!18, !17}
!19 = distinct !{!19, !17}
!20 = distinct !{!20, !17}
!21 = distinct !{!21, !17}
